GAS LISTING /tmp/ccC5kB4k.s 			page 1


   1              		.file	"parallel_merge.c"
   2              		.text
   3              	.Ltext0:
   4              		.p2align 4,,15
   5              		.type	merge, @function
   6              	merge:
   7              	.LFB20:
   8              		.file 1 "parallel_merge.c"
   1:parallel_merge.c **** #include <cilk/cilk.h>
   2:parallel_merge.c **** #include <omp.h>
   3:parallel_merge.c **** 
   4:parallel_merge.c **** #include "merge.h"
   5:parallel_merge.c **** 
   6:parallel_merge.c **** //merge two sorted arrays A and B into array C
   7:parallel_merge.c **** static void merge(uint32_t* C, uint32_t* A, uint32_t* Aend, uint32_t* B, uint32_t* Bend) {
   9              		.loc 1 7 0
  10              		.cfi_startproc
  11              	.LVL0:
  12 0000 4154     		pushq	%r12
  13              		.cfi_def_cfa_offset 16
  14              		.cfi_offset 12, -16
   8:parallel_merge.c ****   while (A < Aend && B < Bend) {
  15              		.loc 1 8 0
  16 0002 4839D6   		cmpq	%rdx, %rsi
   7:parallel_merge.c ****   while (A < Aend && B < Bend) {
  17              		.loc 1 7 0
  18 0005 4989F9   		movq	%rdi, %r9
  19 0008 55       		pushq	%rbp
  20              		.cfi_def_cfa_offset 24
  21              		.cfi_offset 6, -24
  22 0009 4C89C5   		movq	%r8, %rbp
  23 000c 53       		pushq	%rbx
  24              		.cfi_def_cfa_offset 32
  25              		.cfi_offset 3, -32
   7:parallel_merge.c ****   while (A < Aend && B < Bend) {
  26              		.loc 1 7 0
  27 000d 4889CB   		movq	%rcx, %rbx
  28              		.loc 1 8 0
  29 0010 734A     		jae	.L2
  30 0012 4C39C1   		cmpq	%r8, %rcx
  31 0015 720E     		jb	.L3
  32 0017 EB43     		jmp	.L2
  33              	.LVL1:
  34 0019 0F1F8000 		.p2align 4,,10
  34      000000
  35              		.p2align 3
  36              	.L18:
  37 0020 4839F2   		cmpq	%rsi, %rdx
  38 0023 7637     		jbe	.L2
  39              	.LVL2:
  40              	.L3:
  41              	.LBB2:
   9:parallel_merge.c ****     *C++ = *B ^ ((*A ^ *B) & -(*A < *B));
  42              		.loc 1 9 0
  43 0025 8B0B     		movl	(%rbx), %ecx
  44 0027 448B16   		movl	(%rsi), %r10d
  45 002a 4983C104 		addq	$4, %r9
GAS LISTING /tmp/ccC5kB4k.s 			page 2


  46              	.LVL3:
  47 002e 4139CA   		cmpl	%ecx, %r10d
  48 0031 19C0     		sbbl	%eax, %eax
  49 0033 4131CA   		xorl	%ecx, %r10d
  50 0036 4421D0   		andl	%r10d, %eax
  51 0039 31C8     		xorl	%ecx, %eax
  52 003b 418941FC 		movl	%eax, -4(%r9)
  10:parallel_merge.c ****     /*if (*A < *B) {
  11:parallel_merge.c ****       *C++ = *A++;
  12:parallel_merge.c ****     } else {
  13:parallel_merge.c ****       *C++ = *B++;
  14:parallel_merge.c ****     }*/
  15:parallel_merge.c ****     bool inc = *A < *B;
  53              		.loc 1 15 0
  54 003f 8B03     		movl	(%rbx), %eax
  55 0041 3906     		cmpl	%eax, (%rsi)
  56 0043 0F92C0   		setb	%al
  57              	.LVL4:
  16:parallel_merge.c ****     A += inc;
  58              		.loc 1 16 0
  59 0046 0FB6C8   		movzbl	%al, %ecx
  17:parallel_merge.c ****     B += !inc;
  60              		.loc 1 17 0
  61 0049 83F001   		xorl	$1, %eax
  62              	.LVL5:
  63 004c 0FB6C0   		movzbl	%al, %eax
  16:parallel_merge.c ****     A += inc;
  64              		.loc 1 16 0
  65 004f 488D348E 		leaq	(%rsi,%rcx,4), %rsi
  66              	.LVL6:
  67              		.loc 1 17 0
  68 0053 488D1C83 		leaq	(%rbx,%rax,4), %rbx
  69              	.LVL7:
  70              	.LBE2:
   8:parallel_merge.c ****     *C++ = *B ^ ((*A ^ *B) & -(*A < *B));
  71              		.loc 1 8 0
  72 0057 4839DD   		cmpq	%rbx, %rbp
  73 005a 77C4     		ja	.L18
  74              	.LVL8:
  75              	.L2:
  18:parallel_merge.c ****   }
  19:parallel_merge.c ****   /*while (A < Aend) {
  20:parallel_merge.c ****     *C++ = *A++;
  21:parallel_merge.c ****   }
  22:parallel_merge.c ****   while (B < Bend) {
  23:parallel_merge.c ****     *C++ = *B++;
  24:parallel_merge.c ****   }*/
  25:parallel_merge.c ****   memcpy(C, A, (Aend - A) * sizeof(*A));
  76              		.loc 1 25 0
  77 005c 4829F2   		subq	%rsi, %rdx
  78              	.LVL9:
  79 005f 4C89CF   		movq	%r9, %rdi
  80 0062 4989D4   		movq	%rdx, %r12
  81 0065 4983E4FC 		andq	$-4, %r12
  82 0069 4C89E2   		movq	%r12, %rdx
  83 006c E8000000 		call	memcpy
  83      00
GAS LISTING /tmp/ccC5kB4k.s 			page 3


  84              	.LVL10:
  85              	.LVL11:
  26:parallel_merge.c ****   memcpy(C + (Aend - A), B, (Bend - B) * sizeof(*B));
  86              		.loc 1 26 0
  87 0071 4889EA   		movq	%rbp, %rdx
  88 0074 4889DE   		movq	%rbx, %rsi
  89 0077 4A8D3C20 		leaq	(%rax,%r12), %rdi
  90 007b 4829DA   		subq	%rbx, %rdx
  27:parallel_merge.c **** }
  91              		.loc 1 27 0
  92 007e 5B       		popq	%rbx
  93              		.cfi_def_cfa_offset 24
  94              	.LVL12:
  95 007f 5D       		popq	%rbp
  96              		.cfi_def_cfa_offset 16
  97              	.LVL13:
  98 0080 415C     		popq	%r12
  99              		.cfi_def_cfa_offset 8
  26:parallel_merge.c ****   memcpy(C + (Aend - A), B, (Bend - B) * sizeof(*B));
 100              		.loc 1 26 0
 101 0082 4883E2FC 		andq	$-4, %rdx
 102 0086 E9000000 		jmp	memcpy
 102      00
 103              	.LVL14:
 104              	.LVL15:
 105              		.cfi_endproc
 106              	.LFE20:
 107              		.size	merge, .-merge
 108 008b 0F1F4400 		.p2align 4,,15
 108      00
 109              		.type	__cilk_spawn_001, @function
 110              	__cilk_spawn_001:
 111              	.LFB23:
 112              		.cfi_startproc
 113 0090 55       		pushq	%rbp
 114              		.cfi_def_cfa_offset 16
 115              		.cfi_offset 6, -16
 116 0091 4889E5   		movq	%rsp, %rbp
 117              		.cfi_def_cfa_register 6
 118 0094 4155     		pushq	%r13
 119 0096 4154     		pushq	%r12
 120 0098 53       		pushq	%rbx
 121 0099 4883EC58 		subq	$88, %rsp
 122              		.cfi_offset 13, -24
 123              		.cfi_offset 12, -32
 124              		.cfi_offset 3, -40
 125 009d 4989FC   		movq	%rdi, %r12
 126 00a0 4989F5   		movq	%rsi, %r13
 127 00a3 4889D3   		movq	%rdx, %rbx
  28:parallel_merge.c **** 
  29:parallel_merge.c **** static void merge_sort_helper(uint32_t* start, uint32_t* end, uint32_t* aux) {
  30:parallel_merge.c ****   uint32_t n = (end - start);
  31:parallel_merge.c ****   if (n == 1) {
  32:parallel_merge.c ****     return;
  33:parallel_merge.c ****   }
  34:parallel_merge.c ****   int* mid = start + n/2;
  35:parallel_merge.c **** 
GAS LISTING /tmp/ccC5kB4k.s 			page 4


  36:parallel_merge.c ****   // coarsening
  37:parallel_merge.c ****   if (n < (1L << 11)) {
  38:parallel_merge.c ****     merge_sort_helper(start, mid, aux);
  39:parallel_merge.c ****     merge_sort_helper(mid, end, aux + n/2);
  40:parallel_merge.c ****   }
  41:parallel_merge.c ****   else {
  42:parallel_merge.c ****     /* // OPENMP
  43:parallel_merge.c ****     #pragma omp parallel for
  44:parallel_merge.c ****     for (int i = 0; i < 2; i++) {
  45:parallel_merge.c ****       merge_sort_helper(start + i * n / 2, start + (i + 1) * n / 2, aux + i * n / 2);
  46:parallel_merge.c ****     }
  47:parallel_merge.c ****     */
  48:parallel_merge.c **** 
  49:parallel_merge.c ****     // CILK+
  50:parallel_merge.c ****     cilk_spawn merge_sort_helper(start, mid, aux);
 128              		.loc 1 50 0
 129 00a6 488D7D90 		leaq	-112(%rbp), %rdi
 130              	.L23:
 131              	.LVL16:
 132 00aa 488D7D90 		leaq	-112(%rbp), %rdi
 133 00ae E8000000 		call	__cilkrts_enter_frame
 133      00
 134              	.LVL17:
 135 00b3 488D7D90 		leaq	-112(%rbp), %rdi
 136              	.L24:
 137              	.LVL18:
 138 00b7 488D7D90 		leaq	-112(%rbp), %rdi
 139              	.L25:
 140              	.LVL19:
 141 00bb 488B4DA0 		movq	-96(%rbp), %rcx
 142 00bf 488B01   		movq	(%rcx), %rax
 143 00c2 488B5598 		movq	-104(%rbp), %rdx
 144 00c6 488910   		movq	%rdx, (%rax)
 145 00c9 4883C008 		addq	$8, %rax
 146 00cd 488901   		movq	%rax, (%rcx)
 147 00d0 834D9004 		orl	$4, -112(%rbp)
 148              	.L26:
 149              	.LVL20:
 150 00d4 4C89E2   		movq	%r12, %rdx
 151 00d7 4C89EE   		movq	%r13, %rsi
 152 00da 4889DF   		movq	%rbx, %rdi
 153 00dd E83E0000 		call	merge_sort_helper
 153      00
 154              	.LVL21:
 155 00e2 488B5598 		movq	-104(%rbp), %rdx
 156 00e6 488B45A0 		movq	-96(%rbp), %rax
 157 00ea 48895048 		movq	%rdx, 72(%rax)
 158 00ee 48C74598 		movq	$0, -104(%rbp)
 158      00000000 
 159 00f6 488D7D90 		leaq	-112(%rbp), %rdi
 160              	.L27:
 161              	.LVL22:
 162 00fa 8B4590   		movl	-112(%rbp), %eax
 163 00fd 85C0     		testl	%eax, %eax
 164 00ff 750B     		jne	.L22
 165              	.L20:
 166              	.L28:
GAS LISTING /tmp/ccC5kB4k.s 			page 5


 167              	.LVL23:
 168 0101 4883C458 		addq	$88, %rsp
 169 0105 5B       		popq	%rbx
 170 0106 415C     		popq	%r12
 171 0108 415D     		popq	%r13
 172 010a 5D       		popq	%rbp
 173              		.cfi_remember_state
 174              		.cfi_def_cfa 7, 8
 175 010b C3       		ret
 176              	.L22:
 177              		.cfi_restore_state
 178 010c 488D7D90 		leaq	-112(%rbp), %rdi
 179 0110 E8000000 		call	__cilkrts_leave_frame
 179      00
 180              	.LVL24:
 181 0115 EBEA     		jmp	.L20
 182              		.cfi_endproc
 183              	.LFE23:
 184              		.size	__cilk_spawn_001, .-__cilk_spawn_001
 185              		.section .itt_notify_tab,"a"
 186              	.L29:
 187 0000 2E       		.byte	46
 188 0001 69       		.byte	105
 189 0002 74       		.byte	116
 190 0003 74       		.byte	116
 191 0004 5F       		.byte	95
 192 0005 6E       		.byte	110
 193 0006 6F       		.byte	111
 194 0007 74       		.byte	116
 195 0008 69       		.byte	105
 196 0009 66       		.byte	102
 197 000a 79       		.byte	121
 198 000b 5F       		.byte	95
 199 000c 74       		.byte	116
 200 000d 61       		.byte	97
 201 000e 62       		.byte	98
 202 000f 00       		.byte	0
 203 0010 01       		.byte	1
 204 0011 01       		.byte	1
 205 0012 0600     		.value	6
 206 0014 9C000000 		.long	.L30-.L29
 207 0018 69000000 		.long	105
 208 001c 05010000 		.long	.L31-.L29
 209 0020 0C000000 		.long	12
 210 0024 00000000 		.quad	.L23
 210      00000000 
 211 002c 00000000 		.long	0
 212 0030 00000000 		.long	0
 213 0034 00000000 		.long	0
 214 0038 00000000 		.quad	.L24
 214      00000000 
 215 0040 00000000 		.long	0
 216 0044 18000000 		.long	24
 217 0048 02000000 		.long	2
 218 004c 00000000 		.quad	.L25
 218      00000000 
 219 0054 00000000 		.long	0
GAS LISTING /tmp/ccC5kB4k.s 			page 6


 220 0058 27000000 		.long	39
 221 005c 04000000 		.long	4
 222 0060 00000000 		.quad	.L26
 222      00000000 
 223 0068 00000000 		.long	0
 224 006c 39000000 		.long	57
 225 0070 06000000 		.long	6
 226 0074 00000000 		.quad	.L27
 226      00000000 
 227 007c 00000000 		.long	0
 228 0080 49000000 		.long	73
 229 0084 08000000 		.long	8
 230 0088 00000000 		.quad	.L28
 230      00000000 
 231 0090 00000000 		.long	0
 232 0094 5A000000 		.long	90
 233 0098 0A000000 		.long	10
 234              	.L30:
 235 009c 63       		.byte	99
 236 009d 69       		.byte	105
 237 009e 6C       		.byte	108
 238 009f 6B       		.byte	107
 239 00a0 5F       		.byte	95
 240 00a1 65       		.byte	101
 241 00a2 6E       		.byte	110
 242 00a3 74       		.byte	116
 243 00a4 65       		.byte	101
 244 00a5 72       		.byte	114
 245 00a6 5F       		.byte	95
 246 00a7 68       		.byte	104
 247 00a8 65       		.byte	101
 248 00a9 6C       		.byte	108
 249 00aa 70       		.byte	112
 250 00ab 65       		.byte	101
 251 00ac 72       		.byte	114
 252 00ad 5F       		.byte	95
 253 00ae 62       		.byte	98
 254 00af 65       		.byte	101
 255 00b0 67       		.byte	103
 256 00b1 69       		.byte	105
 257 00b2 6E       		.byte	110
 258 00b3 00       		.byte	0
 259 00b4 63       		.byte	99
 260 00b5 69       		.byte	105
 261 00b6 6C       		.byte	108
 262 00b7 6B       		.byte	107
 263 00b8 5F       		.byte	95
 264 00b9 65       		.byte	101
 265 00ba 6E       		.byte	110
 266 00bb 74       		.byte	116
 267 00bc 65       		.byte	101
 268 00bd 72       		.byte	114
 269 00be 5F       		.byte	95
 270 00bf 65       		.byte	101
 271 00c0 6E       		.byte	110
 272 00c1 64       		.byte	100
 273 00c2 00       		.byte	0
GAS LISTING /tmp/ccC5kB4k.s 			page 7


 274 00c3 63       		.byte	99
 275 00c4 69       		.byte	105
 276 00c5 6C       		.byte	108
 277 00c6 6B       		.byte	107
 278 00c7 5F       		.byte	95
 279 00c8 64       		.byte	100
 280 00c9 65       		.byte	101
 281 00ca 74       		.byte	116
 282 00cb 61       		.byte	97
 283 00cc 63       		.byte	99
 284 00cd 68       		.byte	104
 285 00ce 5F       		.byte	95
 286 00cf 62       		.byte	98
 287 00d0 65       		.byte	101
 288 00d1 67       		.byte	103
 289 00d2 69       		.byte	105
 290 00d3 6E       		.byte	110
 291 00d4 00       		.byte	0
 292 00d5 63       		.byte	99
 293 00d6 69       		.byte	105
 294 00d7 6C       		.byte	108
 295 00d8 6B       		.byte	107
 296 00d9 5F       		.byte	95
 297 00da 64       		.byte	100
 298 00db 65       		.byte	101
 299 00dc 74       		.byte	116
 300 00dd 61       		.byte	97
 301 00de 63       		.byte	99
 302 00df 68       		.byte	104
 303 00e0 5F       		.byte	95
 304 00e1 65       		.byte	101
 305 00e2 6E       		.byte	110
 306 00e3 64       		.byte	100
 307 00e4 00       		.byte	0
 308 00e5 63       		.byte	99
 309 00e6 69       		.byte	105
 310 00e7 6C       		.byte	108
 311 00e8 6B       		.byte	107
 312 00e9 5F       		.byte	95
 313 00ea 6C       		.byte	108
 314 00eb 65       		.byte	101
 315 00ec 61       		.byte	97
 316 00ed 76       		.byte	118
 317 00ee 65       		.byte	101
 318 00ef 5F       		.byte	95
 319 00f0 62       		.byte	98
 320 00f1 65       		.byte	101
 321 00f2 67       		.byte	103
 322 00f3 69       		.byte	105
 323 00f4 6E       		.byte	110
 324 00f5 00       		.byte	0
 325 00f6 63       		.byte	99
 326 00f7 69       		.byte	105
 327 00f8 6C       		.byte	108
 328 00f9 6B       		.byte	107
 329 00fa 5F       		.byte	95
 330 00fb 6C       		.byte	108
GAS LISTING /tmp/ccC5kB4k.s 			page 8


 331 00fc 65       		.byte	101
 332 00fd 61       		.byte	97
 333 00fe 76       		.byte	118
 334 00ff 65       		.byte	101
 335 0100 5F       		.byte	95
 336 0101 65       		.byte	101
 337 0102 6E       		.byte	110
 338 0103 64       		.byte	100
 339 0104 00       		.byte	0
 340              	.L31:
 341 0105 0155     		.value	21761
 342 0107 0155     		.value	21761
 343 0109 0155     		.value	21761
 344 010b 0130     		.value	12289
 345 010d 0155     		.value	21761
 346 010f 0130     		.value	12289
 347              		.text
 348 0117 660F1F84 		.p2align 4,,15
 348      00000000 
 348      00
 349              		.type	merge_sort_helper, @function
 350              	merge_sort_helper:
 351              	.LFB21:
  29:parallel_merge.c ****   uint32_t n = (end - start);
 352              		.loc 1 29 0
 353              		.cfi_startproc
 354              	.LVL25:
 355 0120 55       		pushq	%rbp
 356              		.cfi_def_cfa_offset 16
 357              		.cfi_offset 6, -16
 358 0121 4889E5   		movq	%rsp, %rbp
 359              		.cfi_def_cfa_register 6
 360 0124 4157     		pushq	%r15
 361 0126 4156     		pushq	%r14
 362 0128 4155     		pushq	%r13
 363 012a 4154     		pushq	%r12
 364 012c 53       		pushq	%rbx
 365 012d 4881EC98 		subq	$152, %rsp
 365      000000
 366              		.cfi_offset 15, -24
 367              		.cfi_offset 14, -32
 368              		.cfi_offset 13, -40
 369              		.cfi_offset 12, -48
 370              		.cfi_offset 3, -56
 371 0134 4889BD68 		movq	%rdi, -152(%rbp)
 371      FFFFFF
 372 013b 4889B560 		movq	%rsi, -160(%rbp)
 372      FFFFFF
 373 0142 48899570 		movq	%rdx, -144(%rbp)
 373      FFFFFF
  29:parallel_merge.c ****   uint32_t n = (end - start);
 374              		.loc 1 29 0
 375 0149 488D4580 		leaq	-128(%rbp), %rax
 376 014d 48898578 		movq	%rax, -136(%rbp)
 376      FFFFFF
 377 0154 4889C7   		movq	%rax, %rdi
 378              	.LVL26:
GAS LISTING /tmp/ccC5kB4k.s 			page 9


 379              	.L68:
  29:parallel_merge.c ****   uint32_t n = (end - start);
 380              		.loc 1 29 0 is_stmt 0 discriminator 1
 381 0157 488BBD78 		movq	-136(%rbp), %rdi
 381      FFFFFF
 382 015e E8000000 		call	__cilkrts_enter_frame
 382      00
 383              	.LVL27:
  29:parallel_merge.c ****   uint32_t n = (end - start);
 384              		.loc 1 29 0 discriminator 2
 385 0163 488BBD78 		movq	-136(%rbp), %rdi
 385      FFFFFF
 386              	.L69:
 387              	.LVL28:
  30:parallel_merge.c ****   if (n == 1) {
 388              		.loc 1 30 0 is_stmt 1
 389 016a 488B8560 		movq	-160(%rbp), %rax
 389      FFFFFF
 390 0171 488B9D68 		movq	-152(%rbp), %rbx
 390      FFFFFF
 391 0178 4829D8   		subq	%rbx, %rax
 392 017b 48C1F802 		sarq	$2, %rax
 393 017f 898554FF 		movl	%eax, -172(%rbp)
 393      FFFF
 394              	.LVL29:
  31:parallel_merge.c ****     return;
 395              		.loc 1 31 0
 396 0185 83F801   		cmpl	$1, %eax
 397 0188 0F847201 		je	.L33
 397      0000
  34:parallel_merge.c **** 
 398              		.loc 1 34 0
 399 018e 89C2     		movl	%eax, %edx
 400 0190 D1EA     		shrl	%edx
 401 0192 488D0C95 		leaq	0(,%rdx,4), %rcx
 401      00000000 
 402 019a 48898D48 		movq	%rcx, -184(%rbp)
 402      FFFFFF
 403 01a1 4801CB   		addq	%rcx, %rbx
 404 01a4 48899D58 		movq	%rbx, -168(%rbp)
 404      FFFFFF
 405              	.LVL30:
  37:parallel_merge.c ****     merge_sort_helper(start, mid, aux);
 406              		.loc 1 37 0
 407 01ab 3DFF0700 		cmpl	$2047, %eax
 407      00
 408 01b0 0F875202 		ja	.L34
 408      0000
  38:parallel_merge.c ****     merge_sort_helper(mid, end, aux + n/2);
 409              		.loc 1 38 0
 410 01b6 488B9570 		movq	-144(%rbp), %rdx
 410      FFFFFF
 411 01bd 4889DE   		movq	%rbx, %rsi
 412 01c0 488BBD68 		movq	-152(%rbp), %rdi
 412      FFFFFF
 413 01c7 E854FFFF 		call	merge_sort_helper
 413      FF
GAS LISTING /tmp/ccC5kB4k.s 			page 10


 414              	.LVL31:
 415              	.LVL32:
  39:parallel_merge.c ****   }
 416              		.loc 1 39 0
 417 01cc 488B9548 		movq	-184(%rbp), %rdx
 417      FFFFFF
 418 01d3 48039570 		addq	-144(%rbp), %rdx
 418      FFFFFF
 419 01da 488BB560 		movq	-160(%rbp), %rsi
 419      FFFFFF
 420 01e1 488BBD58 		movq	-168(%rbp), %rdi
 420      FFFFFF
 421 01e8 E833FFFF 		call	merge_sort_helper
 421      FF
 422              	.LVL33:
 423 01ed E9CD0000 		jmp	.L35
 423      00
 424              	.LVL34:
 425              		.p2align 4,,10
 426 01f2 660F1F44 		.p2align 3
 426      0000
 427              	.L48:
 428 01f8 4883C530 		addq	$48, %rbp
 429              	.LVL35:
 430 01fc 488D4580 		leaq	-128(%rbp), %rax
 431 0200 F6458010 		testb	$16, -128(%rbp)
 432 0204 48898578 		movq	%rax, -136(%rbp)
 432      FFFFFF
 433 020b 0F859F01 		jne	.L56
 433      0000
 434              	.L47:
 435 0211 488BBD78 		movq	-136(%rbp), %rdi
 435      FFFFFF
 436              	.L70:
 437              	.LVL36:
 438 0218 488B5588 		movq	-120(%rbp), %rdx
 439 021c 488B4590 		movq	-112(%rbp), %rax
 440 0220 48895048 		movq	%rdx, 72(%rax)
 441 0224 48C74588 		movq	$0, -120(%rbp)
 441      00000000 
 442 022c 488BBD78 		movq	-136(%rbp), %rdi
 442      FFFFFF
 443              	.L71:
 444              	.LVL37:
 445 0233 8B5580   		movl	-128(%rbp), %edx
 446 0236 85D2     		testl	%edx, %edx
 447 0238 0F85F101 		jne	.L51
 447      0000
 448              	.L53:
 449              	.L72:
 450              	.LVL38:
  51:parallel_merge.c ****     merge_sort_helper(mid, end, aux + n/2);
  52:parallel_merge.c ****     cilk_sync;
  53:parallel_merge.c ****   }
  54:parallel_merge.c **** 
  55:parallel_merge.c ****   merge(aux, start, mid, mid, end);
  56:parallel_merge.c ****   memcpy(start, aux, n * sizeof(*aux));
GAS LISTING /tmp/ccC5kB4k.s 			page 11


  57:parallel_merge.c **** }
 451              		.loc 1 57 0
 452 023e 4881C498 		addq	$152, %rsp
 452      000000
 453 0245 5B       		popq	%rbx
 454 0246 415C     		popq	%r12
 455 0248 415D     		popq	%r13
 456 024a 415E     		popq	%r14
 457 024c 415F     		popq	%r15
 458 024e 5D       		popq	%rbp
 459              		.cfi_remember_state
 460              		.cfi_def_cfa 7, 8
 461 024f C3       		ret
 462              	.LVL39:
 463              		.p2align 4,,10
 464              		.p2align 3
 465              	.L38:
 466              		.cfi_restore_state
  50:parallel_merge.c ****     merge_sort_helper(mid, end, aux + n/2);
 467              		.loc 1 50 0
 468 0250 4883C530 		addq	$48, %rbp
 469 0254 C78578FF 		movl	$1, -136(%rbp)
 469      FFFF0100 
 469      0000
 470              	.L39:
 471              	.LVL40:
  50:parallel_merge.c ****     merge_sort_helper(mid, end, aux + n/2);
 472              		.loc 1 50 0 is_stmt 0 discriminator 7
 473 025e 8BBD78FF 		movl	-136(%rbp), %edi
 473      FFFF
 474 0264 31C0     		xorl	%eax, %eax
 475              	.L73:
 476              	.LVL41:
  50:parallel_merge.c ****     merge_sort_helper(mid, end, aux + n/2);
 477              		.loc 1 50 0 discriminator 8
 478 0266 8B8D78FF 		movl	-136(%rbp), %ecx
 478      FFFF
 479 026c 85C9     		testl	%ecx, %ecx
 480 026e 0F844C01 		je	.L40
 480      0000
 481              	.L42:
  51:parallel_merge.c ****     merge_sort_helper(mid, end, aux + n/2);
 482              		.loc 1 51 0 is_stmt 1
 483 0274 8B8554FF 		movl	-172(%rbp), %eax
 483      FFFF
 484 027a D1E8     		shrl	%eax
 485 027c 488B8D70 		movq	-144(%rbp), %rcx
 485      FFFFFF
 486 0283 488D1481 		leaq	(%rcx,%rax,4), %rdx
 487 0287 488BB560 		movq	-160(%rbp), %rsi
 487      FFFFFF
 488 028e 488BBD58 		movq	-168(%rbp), %rdi
 488      FFFFFF
 489 0295 E886FEFF 		call	merge_sort_helper
 489      FF
 490              	.LVL42:
  52:parallel_merge.c ****   }
GAS LISTING /tmp/ccC5kB4k.s 			page 12


 491              		.loc 1 52 0
 492 029a 488D4580 		leaq	-128(%rbp), %rax
 493 029e 48898578 		movq	%rax, -136(%rbp)
 493      FFFFFF
 494 02a5 4889C7   		movq	%rax, %rdi
 495              	.L74:
 496              	.LVL43:
  52:parallel_merge.c ****   }
 497              		.loc 1 52 0 is_stmt 0 discriminator 1
 498 02a8 F6458002 		testb	$2, -128(%rbp)
 499 02ac 0F852D01 		jne	.L67
 499      0000
 500              		.p2align 4,,10
 501 02b2 660F1F44 		.p2align 3
 501      0000
 502              	.L43:
  52:parallel_merge.c ****   }
 503              		.loc 1 52 0 discriminator 3
 504 02b8 488BBD78 		movq	-136(%rbp), %rdi
 504      FFFFFF
 505              	.L75:
 506              	.LVL44:
 507              	.L35:
  55:parallel_merge.c ****   memcpy(start, aux, n * sizeof(*aux));
 508              		.loc 1 55 0 is_stmt 1
 509 02bf 4C8B8560 		movq	-160(%rbp), %r8
 509      FFFFFF
 510 02c6 488B9558 		movq	-168(%rbp), %rdx
 510      FFFFFF
 511 02cd 4889D1   		movq	%rdx, %rcx
 512 02d0 488BB568 		movq	-152(%rbp), %rsi
 512      FFFFFF
 513 02d7 488BBD70 		movq	-144(%rbp), %rdi
 513      FFFFFF
 514 02de E81DFDFF 		call	merge
 514      FF
 515              	.LVL45:
  56:parallel_merge.c **** }
 516              		.loc 1 56 0
 517 02e3 8B9554FF 		movl	-172(%rbp), %edx
 517      FFFF
 518 02e9 48C1E202 		salq	$2, %rdx
 519 02ed 488BB570 		movq	-144(%rbp), %rsi
 519      FFFFFF
 520 02f4 488BBD68 		movq	-152(%rbp), %rdi
 520      FFFFFF
 521 02fb E8000000 		call	memcpy
 521      00
 522              	.LVL46:
 523              	.LVL47:
 524              	.L33:
 525 0300 488BBD78 		movq	-136(%rbp), %rdi
 525      FFFFFF
 526              	.L76:
 527              	.LVL48:
 528 0307 F6458002 		testb	$2, -128(%rbp)
 529 030b 0F8400FF 		je	.L47
GAS LISTING /tmp/ccC5kB4k.s 			page 13


 529      FFFF
 530 0311 488BBD78 		movq	-136(%rbp), %rdi
 530      FFFFFF
 531 0318 488D5DD0 		leaq	-48(%rbp), %rbx
 532 031c 48895DA0 		movq	%rbx, -96(%rbp)
 533 0320 48C74728 		movq	$.L48, 40(%rdi)
 533      00000000 
 534 0328 48896730 		movq	%rsp, 48(%rdi)
 535 032c E8000000 		call	__cilkrts_sync
 535      00
 536              	.LVL49:
 537 0331 E9DBFEFF 		jmp	.L47
 537      FF
 538              	.LVL50:
 539 0336 662E0F1F 		.p2align 4,,10
 539      84000000 
 539      0000
 540              		.p2align 3
 541              	.L44:
  52:parallel_merge.c ****   }
 542              		.loc 1 52 0
 543 0340 4883C530 		addq	$48, %rbp
 544              	.LVL51:
 545 0344 488D4580 		leaq	-128(%rbp), %rax
 546 0348 F6458010 		testb	$16, -128(%rbp)
 547 034c 48898578 		movq	%rax, -136(%rbp)
 547      FFFFFF
 548 0353 0F845FFF 		je	.L43
 548      FFFF
  52:parallel_merge.c ****   }
 549              		.loc 1 52 0 is_stmt 0 discriminator 9
 550 0359 4889C7   		movq	%rax, %rdi
 551 035c E8000000 		call	__cilkrts_rethrow
 551      00
 552              	.LVL52:
 553 0361 E952FFFF 		jmp	.L43
 553      FF
 554              	.LVL53:
 555 0366 662E0F1F 		.p2align 4,,10
 555      84000000 
 555      0000
 556              		.p2align 3
 557              	.L36:
  50:parallel_merge.c ****     merge_sort_helper(mid, end, aux + n/2);
 558              		.loc 1 50 0 is_stmt 1
 559 0370 4883C530 		addq	$48, %rbp
 560 0374 488D4580 		leaq	-128(%rbp), %rax
 561 0378 48898578 		movq	%rax, -136(%rbp)
 561      FFFFFF
 562 037f 4889C7   		movq	%rax, %rdi
 563              	.L37:
 564              	.LVL54:
 565              	.L77:
  50:parallel_merge.c ****     merge_sort_helper(mid, end, aux + n/2);
 566              		.loc 1 50 0 is_stmt 0 discriminator 4
 567 0382 488B8578 		movq	-136(%rbp), %rax
 567      FFFFFF
GAS LISTING /tmp/ccC5kB4k.s 			page 14


 568 0389 488D5DD0 		leaq	-48(%rbp), %rbx
 569 038d 48895DA0 		movq	%rbx, -96(%rbp)
 570 0391 48C74028 		movq	$.L38, 40(%rax)
 570      00000000 
 571 0399 48896030 		movq	%rsp, 48(%rax)
 572 039d C78578FF 		movl	$0, -136(%rbp)
 572      FFFF0000 
 572      0000
 573 03a7 E9B2FEFF 		jmp	.L39
 573      FF
 574 03ac 0F1F4000 		.p2align 4,,10
 575              		.p2align 3
 576              	.L56:
 577 03b0 4889C7   		movq	%rax, %rdi
 578 03b3 E8000000 		call	__cilkrts_rethrow
 578      00
 579              	.LVL55:
 580 03b8 E954FEFF 		jmp	.L47
 580      FF
 581 03bd 0F1F00   		.p2align 4,,10
 582              		.p2align 3
 583              	.L40:
  50:parallel_merge.c ****     merge_sort_helper(mid, end, aux + n/2);
 584              		.loc 1 50 0 discriminator 9
 585 03c0 488B9568 		movq	-152(%rbp), %rdx
 585      FFFFFF
 586 03c7 488BB558 		movq	-168(%rbp), %rsi
 586      FFFFFF
 587 03ce 488BBD70 		movq	-144(%rbp), %rdi
 587      FFFFFF
 588 03d5 E8B6FCFF 		call	__cilk_spawn_001
 588      FF
 589              	.LVL56:
 590 03da E995FEFF 		jmp	.L42
 590      FF
 591              	.L67:
  52:parallel_merge.c ****   }
 592              		.loc 1 52 0 is_stmt 1 discriminator 2
 593 03df 488BBD78 		movq	-136(%rbp), %rdi
 593      FFFFFF
 594 03e6 488D4DD0 		leaq	-48(%rbp), %rcx
 595 03ea 48894DA0 		movq	%rcx, -96(%rbp)
 596 03ee 48C74728 		movq	$.L44, 40(%rdi)
 596      00000000 
 597 03f6 48896730 		movq	%rsp, 48(%rdi)
 598              	.L54:
 599 03fa E8000000 		call	__cilkrts_sync
 599      00
 600              	.LVL57:
 601 03ff E9B4FEFF 		jmp	.L43
 601      FF
 602              	.LVL58:
 603              		.p2align 4,,10
 604 0404 0F1F4000 		.p2align 3
 605              	.L34:
  50:parallel_merge.c ****     merge_sort_helper(mid, end, aux + n/2);
 606              		.loc 1 50 0
GAS LISTING /tmp/ccC5kB4k.s 			page 15


 607 0408 488B8578 		movq	-136(%rbp), %rax
 607      FFFFFF
 608              	.LVL59:
 609 040f 488D5DD0 		leaq	-48(%rbp), %rbx
 610              	.LVL60:
 611 0413 48895DA0 		movq	%rbx, -96(%rbp)
 612 0417 48C74028 		movq	$.L36, 40(%rax)
 612      00000000 
 613 041f 48896030 		movq	%rsp, 48(%rax)
 614 0423 488BBD78 		movq	-136(%rbp), %rdi
 614      FFFFFF
 615 042a E953FFFF 		jmp	.L37
 615      FF
 616              	.L51:
 617 042f 488BBD78 		movq	-136(%rbp), %rdi
 617      FFFFFF
 618 0436 E8000000 		call	__cilkrts_leave_frame
 618      00
 619              	.LVL61:
 620 043b E9FEFDFF 		jmp	.L53
 620      FF
 621              		.cfi_endproc
 622              	.LFE21:
 623              		.size	merge_sort_helper, .-merge_sort_helper
 624              		.section .itt_notify_tab,"a"
 625              	.L78:
 626 0111 2E       		.byte	46
 627 0112 69       		.byte	105
 628 0113 74       		.byte	116
 629 0114 74       		.byte	116
 630 0115 5F       		.byte	95
 631 0116 6E       		.byte	110
 632 0117 6F       		.byte	111
 633 0118 74       		.byte	116
 634 0119 69       		.byte	105
 635 011a 66       		.byte	102
 636 011b 79       		.byte	121
 637 011c 5F       		.byte	95
 638 011d 74       		.byte	116
 639 011e 61       		.byte	97
 640 011f 62       		.byte	98
 641 0120 00       		.byte	0
 642 0121 01       		.byte	1
 643 0122 01       		.byte	1
 644 0123 0A00     		.value	10
 645 0125 EC000000 		.long	.L79-.L78
 646 0129 A6000000 		.long	166
 647 012d 92010000 		.long	.L80-.L78
 648 0131 14000000 		.long	20
 649 0135 00000000 		.quad	.L68
 649      00000000 
 650 013d 00000000 		.long	0
 651 0141 00000000 		.long	0
 652 0145 00000000 		.long	0
 653 0149 00000000 		.quad	.L69
 653      00000000 
 654 0151 00000000 		.long	0
GAS LISTING /tmp/ccC5kB4k.s 			page 16


 655 0155 11000000 		.long	17
 656 0159 02000000 		.long	2
 657 015d 00000000 		.quad	.L70
 657      00000000 
 658 0165 00000000 		.long	0
 659 0169 20000000 		.long	32
 660 016d 04000000 		.long	4
 661 0171 00000000 		.quad	.L71
 661      00000000 
 662 0179 00000000 		.long	0
 663 017d 2E000000 		.long	46
 664 0181 06000000 		.long	6
 665 0185 00000000 		.quad	.L72
 665      00000000 
 666 018d 00000000 		.long	0
 667 0191 3F000000 		.long	63
 668 0195 08000000 		.long	8
 669 0199 00000000 		.quad	.L73
 669      00000000 
 670 01a1 00000000 		.long	0
 671 01a5 4E000000 		.long	78
 672 01a9 0A000000 		.long	10
 673 01ad 00000000 		.quad	.L74
 673      00000000 
 674 01b5 00000000 		.long	0
 675 01b9 65000000 		.long	101
 676 01bd 0C000000 		.long	12
 677 01c1 00000000 		.quad	.L75
 677      00000000 
 678 01c9 00000000 		.long	0
 679 01cd 75000000 		.long	117
 680 01d1 0E000000 		.long	14
 681 01d5 00000000 		.quad	.L76
 681      00000000 
 682 01dd 00000000 		.long	0
 683 01e1 83000000 		.long	131
 684 01e5 10000000 		.long	16
 685 01e9 00000000 		.quad	.L77
 685      00000000 
 686 01f1 00000000 		.long	0
 687 01f5 93000000 		.long	147
 688 01f9 12000000 		.long	18
 689              	.L79:
 690 01fd 63       		.byte	99
 691 01fe 69       		.byte	105
 692 01ff 6C       		.byte	108
 693 0200 6B       		.byte	107
 694 0201 5F       		.byte	95
 695 0202 65       		.byte	101
 696 0203 6E       		.byte	110
 697 0204 74       		.byte	116
 698 0205 65       		.byte	101
 699 0206 72       		.byte	114
 700 0207 5F       		.byte	95
 701 0208 62       		.byte	98
 702 0209 65       		.byte	101
 703 020a 67       		.byte	103
GAS LISTING /tmp/ccC5kB4k.s 			page 17


 704 020b 69       		.byte	105
 705 020c 6E       		.byte	110
 706 020d 00       		.byte	0
 707 020e 63       		.byte	99
 708 020f 69       		.byte	105
 709 0210 6C       		.byte	108
 710 0211 6B       		.byte	107
 711 0212 5F       		.byte	95
 712 0213 65       		.byte	101
 713 0214 6E       		.byte	110
 714 0215 74       		.byte	116
 715 0216 65       		.byte	101
 716 0217 72       		.byte	114
 717 0218 5F       		.byte	95
 718 0219 65       		.byte	101
 719 021a 6E       		.byte	110
 720 021b 64       		.byte	100
 721 021c 00       		.byte	0
 722 021d 63       		.byte	99
 723 021e 69       		.byte	105
 724 021f 6C       		.byte	108
 725 0220 6B       		.byte	107
 726 0221 5F       		.byte	95
 727 0222 73       		.byte	115
 728 0223 79       		.byte	121
 729 0224 6E       		.byte	110
 730 0225 63       		.byte	99
 731 0226 5F       		.byte	95
 732 0227 65       		.byte	101
 733 0228 6E       		.byte	110
 734 0229 64       		.byte	100
 735 022a 00       		.byte	0
 736 022b 63       		.byte	99
 737 022c 69       		.byte	105
 738 022d 6C       		.byte	108
 739 022e 6B       		.byte	107
 740 022f 5F       		.byte	95
 741 0230 6C       		.byte	108
 742 0231 65       		.byte	101
 743 0232 61       		.byte	97
 744 0233 76       		.byte	118
 745 0234 65       		.byte	101
 746 0235 5F       		.byte	95
 747 0236 62       		.byte	98
 748 0237 65       		.byte	101
 749 0238 67       		.byte	103
 750 0239 69       		.byte	105
 751 023a 6E       		.byte	110
 752 023b 00       		.byte	0
 753 023c 63       		.byte	99
 754 023d 69       		.byte	105
 755 023e 6C       		.byte	108
 756 023f 6B       		.byte	107
 757 0240 5F       		.byte	95
 758 0241 6C       		.byte	108
 759 0242 65       		.byte	101
 760 0243 61       		.byte	97
GAS LISTING /tmp/ccC5kB4k.s 			page 18


 761 0244 76       		.byte	118
 762 0245 65       		.byte	101
 763 0246 5F       		.byte	95
 764 0247 65       		.byte	101
 765 0248 6E       		.byte	110
 766 0249 64       		.byte	100
 767 024a 00       		.byte	0
 768 024b 63       		.byte	99
 769 024c 69       		.byte	105
 770 024d 6C       		.byte	108
 771 024e 6B       		.byte	107
 772 024f 5F       		.byte	95
 773 0250 73       		.byte	115
 774 0251 70       		.byte	112
 775 0252 61       		.byte	97
 776 0253 77       		.byte	119
 777 0254 6E       		.byte	110
 778 0255 5F       		.byte	95
 779 0256 6F       		.byte	111
 780 0257 72       		.byte	114
 781 0258 5F       		.byte	95
 782 0259 63       		.byte	99
 783 025a 6F       		.byte	111
 784 025b 6E       		.byte	110
 785 025c 74       		.byte	116
 786 025d 69       		.byte	105
 787 025e 6E       		.byte	110
 788 025f 75       		.byte	117
 789 0260 65       		.byte	101
 790 0261 00       		.byte	0
 791 0262 63       		.byte	99
 792 0263 69       		.byte	105
 793 0264 6C       		.byte	108
 794 0265 6B       		.byte	107
 795 0266 5F       		.byte	95
 796 0267 73       		.byte	115
 797 0268 79       		.byte	121
 798 0269 6E       		.byte	110
 799 026a 63       		.byte	99
 800 026b 5F       		.byte	95
 801 026c 62       		.byte	98
 802 026d 65       		.byte	101
 803 026e 67       		.byte	103
 804 026f 69       		.byte	105
 805 0270 6E       		.byte	110
 806 0271 00       		.byte	0
 807 0272 63       		.byte	99
 808 0273 69       		.byte	105
 809 0274 6C       		.byte	108
 810 0275 6B       		.byte	107
 811 0276 5F       		.byte	95
 812 0277 73       		.byte	115
 813 0278 79       		.byte	121
 814 0279 6E       		.byte	110
 815 027a 63       		.byte	99
 816 027b 5F       		.byte	95
 817 027c 65       		.byte	101
GAS LISTING /tmp/ccC5kB4k.s 			page 19


 818 027d 6E       		.byte	110
 819 027e 64       		.byte	100
 820 027f 00       		.byte	0
 821 0280 63       		.byte	99
 822 0281 69       		.byte	105
 823 0282 6C       		.byte	108
 824 0283 6B       		.byte	107
 825 0284 5F       		.byte	95
 826 0285 73       		.byte	115
 827 0286 79       		.byte	121
 828 0287 6E       		.byte	110
 829 0288 63       		.byte	99
 830 0289 5F       		.byte	95
 831 028a 62       		.byte	98
 832 028b 65       		.byte	101
 833 028c 67       		.byte	103
 834 028d 69       		.byte	105
 835 028e 6E       		.byte	110
 836 028f 00       		.byte	0
 837 0290 63       		.byte	99
 838 0291 69       		.byte	105
 839 0292 6C       		.byte	108
 840 0293 6B       		.byte	107
 841 0294 5F       		.byte	95
 842 0295 73       		.byte	115
 843 0296 70       		.byte	112
 844 0297 61       		.byte	97
 845 0298 77       		.byte	119
 846 0299 6E       		.byte	110
 847 029a 5F       		.byte	95
 848 029b 70       		.byte	112
 849 029c 72       		.byte	114
 850 029d 65       		.byte	101
 851 029e 70       		.byte	112
 852 029f 61       		.byte	97
 853 02a0 72       		.byte	114
 854 02a1 65       		.byte	101
 855 02a2 00       		.byte	0
 856              	.L80:
 857 02a3 0155     		.value	21761
 858 02a5 0155     		.value	21761
 859 02a7 0155     		.value	21761
 860 02a9 0155     		.value	21761
 861 02ab 0130     		.value	12289
 862 02ad 0155     		.value	21761
 863 02af 0155     		.value	21761
 864 02b1 0155     		.value	21761
 865 02b3 0155     		.value	21761
 866 02b5 0155     		.value	21761
 867              		.text
 868              		.p2align 4,,15
 869              		.globl	parallel_merge_sort
 870              		.type	parallel_merge_sort, @function
 871              	parallel_merge_sort:
 872              	.LFB22:
  58:parallel_merge.c **** 
  59:parallel_merge.c **** void parallel_merge_sort(uint32_t* arr, uint32_t* arrend) {
GAS LISTING /tmp/ccC5kB4k.s 			page 20


 873              		.loc 1 59 0
 874              		.cfi_startproc
 875              	.LVL62:
 876 0440 4154     		pushq	%r12
 877              		.cfi_def_cfa_offset 16
 878              		.cfi_offset 12, -16
 879 0442 48BAFCFF 		movabsq	$17179869180, %rdx
 879      FFFF0300 
 879      0000
 880 044c 4989F4   		movq	%rsi, %r12
 881 044f 55       		pushq	%rbp
 882              		.cfi_def_cfa_offset 24
 883              		.cfi_offset 6, -24
 884 0450 53       		pushq	%rbx
 885              		.cfi_def_cfa_offset 32
 886              		.cfi_offset 3, -32
 887              		.loc 1 59 0
 888 0451 4889FB   		movq	%rdi, %rbx
 889              	.LVL63:
  60:parallel_merge.c ****   uint32_t n = arrend - arr;
 890              		.loc 1 60 0
 891 0454 4889F7   		movq	%rsi, %rdi
 892              	.LVL64:
 893 0457 4829DF   		subq	%rbx, %rdi
  61:parallel_merge.c ****   uint32_t *aux = (uint32_t*)malloc(sizeof(uint32_t) * (n)); //auxilliary memory for merge sort
 894              		.loc 1 61 0
 895 045a 4821D7   		andq	%rdx, %rdi
 896 045d E8000000 		call	malloc
 896      00
 897              	.LVL65:
 898              	.LVL66:
  62:parallel_merge.c **** 
  63:parallel_merge.c ****   merge_sort_helper(arr, arrend, aux);
 899              		.loc 1 63 0
 900 0462 4889DF   		movq	%rbx, %rdi
 901 0465 4C89E6   		movq	%r12, %rsi
 902 0468 4889C2   		movq	%rax, %rdx
  61:parallel_merge.c ****   uint32_t *aux = (uint32_t*)malloc(sizeof(uint32_t) * (n)); //auxilliary memory for merge sort
 903              		.loc 1 61 0
 904 046b 4889C5   		movq	%rax, %rbp
 905              	.LVL67:
 906              		.loc 1 63 0
 907 046e E8ADFCFF 		call	merge_sort_helper
 907      FF
 908              	.LVL68:
 909              	.LVL69:
  64:parallel_merge.c **** 
  65:parallel_merge.c ****   free(aux);
  66:parallel_merge.c **** }
 910              		.loc 1 66 0
 911 0473 5B       		popq	%rbx
 912              		.cfi_def_cfa_offset 24
 913              	.LVL70:
  65:parallel_merge.c **** }
 914              		.loc 1 65 0
 915 0474 4889EF   		movq	%rbp, %rdi
 916              		.loc 1 66 0
GAS LISTING /tmp/ccC5kB4k.s 			page 21


 917 0477 5D       		popq	%rbp
 918              		.cfi_def_cfa_offset 16
 919              	.LVL71:
 920 0478 415C     		popq	%r12
 921              		.cfi_def_cfa_offset 8
 922              	.LVL72:
  65:parallel_merge.c **** }
 923              		.loc 1 65 0
 924 047a E9000000 		jmp	free
 924      00
 925              	.LVL73:
 926              	.LVL74:
 927              		.cfi_endproc
 928              	.LFE22:
 929              		.size	parallel_merge_sort, .-parallel_merge_sort
 930              	.Letext0:
 931              		.file 2 "/usr/include/stdint.h"
 932              		.file 3 "/afs/csail.mit.edu/proj/courses/6.172/cilkplus-4_8-install/lib/gcc/x86_64-unknown-linux-g
 933              		.file 4 "/usr/include/x86_64-linux-gnu/bits/types.h"
 934              		.file 5 "/usr/include/libio.h"
 935              		.file 6 "/usr/include/stdio.h"
 2148              		.section	.note.GNU-stack,"",@progbits
